target datalayout = "e-m:e-p270:32:32-p271:32:32-p272:64:64-i64:64-i128:128-f80:128-n8:16:32:64-S128"
target triple = "x86_64-pc-linux-gnu"

%struct.ident_t = type { i32, i32, i32, i32, ptr }
%"class.ncnn::Mat" = type { ptr, ptr, i64, i32, ptr, i32, i32, i32, i32, i32, i64 }
%"class.ncnn::Option" = type { i8, i32, ptr, ptr, i32, i8, i8, i8, i8, i8, i8, i8, i8, i8, i8, i8, i8, i8, i8, i8, i8, i8, i8, i8, i8, i32, i8, i8, i8, i8, i8, i8, i8, i8, i8, i8, i8, i8 }

@2 = private unnamed_addr constant %struct.ident_t { i32 0, i32 2, i32 0, i32 22, ptr @0 }, align 8

; Function Attrs: mustprogress nounwind uwtable
define internal void @_ZN4ncnnL26pooling2x2s2_max_pack4_sseERKNS_3MatERS0_RKNS_6OptionE(ptr noundef nonnull align 8 dereferenceable(72) %0, ptr noundef nonnull align 8 dereferenceable(72) %1, ptr noundef nonnull align 8 dereferenceable(64) %2) #3 {
  %4 = alloca ptr, align 8
  %5 = alloca ptr, align 8
  %6 = alloca ptr, align 8
  %7 = alloca i32, align 4
  %8 = alloca i32, align 4
  %9 = alloca i32, align 4
  %10 = alloca i32, align 4
  %11 = alloca i32, align 4
  %12 = call i32 @__kmpc_global_thread_num(ptr @2)
  store ptr %0, ptr %4, align 8, !tbaa !35
  store ptr %1, ptr %5, align 8, !tbaa !35
  store ptr %2, ptr %6, align 8, !tbaa !9
  call void @llvm.lifetime.start.p0(i64 4, ptr %7) #8
  %13 = load ptr, ptr %4, align 8, !tbaa !35
  %14 = getelementptr inbounds nuw %"class.ncnn::Mat", ptr %13, i32 0, i32 6
  %15 = load i32, ptr %14, align 4, !tbaa !40
  store i32 %15, ptr %7, align 4, !tbaa !39
  call void @llvm.lifetime.start.p0(i64 4, ptr %8) #8
  %16 = load ptr, ptr %4, align 8, !tbaa !35
  %17 = getelementptr inbounds nuw %"class.ncnn::Mat", ptr %16, i32 0, i32 9
  %18 = load i32, ptr %17, align 8, !tbaa !42
  store i32 %18, ptr %8, align 4, !tbaa !39
  call void @llvm.lifetime.start.p0(i64 4, ptr %9) #8
  %19 = load ptr, ptr %5, align 8, !tbaa !35
  %20 = getelementptr inbounds nuw %"class.ncnn::Mat", ptr %19, i32 0, i32 6
  %21 = load i32, ptr %20, align 4, !tbaa !40
  store i32 %21, ptr %9, align 4, !tbaa !39
  call void @llvm.lifetime.start.p0(i64 4, ptr %10) #8
  %22 = load ptr, ptr %5, align 8, !tbaa !35
  %23 = getelementptr inbounds nuw %"class.ncnn::Mat", ptr %22, i32 0, i32 7
  %24 = load i32, ptr %23, align 8, !tbaa !41
  store i32 %24, ptr %10, align 4, !tbaa !39
  call void @llvm.lifetime.start.p0(i64 4, ptr %11) #8
  %25 = load i32, ptr %7, align 4, !tbaa !39
  %26 = load i32, ptr %9, align 4, !tbaa !39
  %27 = mul nsw i32 2, %26
  %28 = sub nsw i32 %25, %27
  %29 = load i32, ptr %7, align 4, !tbaa !39
  %30 = add nsw i32 %28, %29
  %31 = mul nsw i32 %30, 4
  store i32 %31, ptr %11, align 4, !tbaa !39
  %32 = load ptr, ptr %6, align 8, !tbaa !9
  %33 = getelementptr inbounds nuw %"class.ncnn::Option", ptr %32, i32 0, i32 1
  %34 = load i32, ptr %33, align 4, !tbaa !49
  call void @__kmpc_push_num_threads(ptr @2, i32 %12, i32 %34)
  %35 = load ptr, ptr %4, align 8, !tbaa !35
  %36 = load ptr, ptr %5, align 8, !tbaa !35
  call void (ptr, i32, ptr, ...) @__kmpc_fork_call(ptr @2, i32 6, ptr @_ZN4ncnnL26pooling2x2s2_max_pack4_sseERKNS_3MatERS0_RKNS_6OptionE.omp_outlined, ptr %8, ptr %35, ptr %36, ptr %10, ptr %9, ptr %11)
  call void @llvm.lifetime.end.p0(i64 4, ptr %11) #8
  call void @llvm.lifetime.end.p0(i64 4, ptr %10) #8
  call void @llvm.lifetime.end.p0(i64 4, ptr %9) #8
  call void @llvm.lifetime.end.p0(i64 4, ptr %8) #8
  call void @llvm.lifetime.end.p0(i64 4, ptr %7) #8
  ret void
}