; Function Attrs: mustprogress nounwind uwtable
define internal fastcc void @_ZN4ncnnL26pooling2x2s2_max_pack4_sseERKNS_3MatERS0_RKNS_6OptionE(ptr noundef nonnull align 8 dereferenceable(72) %0, ptr noundef nonnull align 8 dereferenceable(72) %1, ptr noundef nonnull readonly align 8 captures(none) dereferenceable(64) %2) unnamed_addr #10 {
  %4 = alloca i32, align 4
  %5 = alloca i32, align 4
  %6 = alloca i32, align 4
  %7 = alloca i32, align 4
  %8 = tail call i32 @__kmpc_global_thread_num(ptr nonnull @2)
  %9 = getelementptr inbounds nuw i8, ptr %0, i64 44
  %10 = load i32, ptr %9, align 4, !tbaa !30
  call void @llvm.lifetime.start.p0(i64 4, ptr nonnull %4) #7
  %11 = getelementptr inbounds nuw i8, ptr %0, i64 56
  %12 = load i32, ptr %11, align 8, !tbaa !33
  store i32 %12, ptr %4, align 4, !tbaa !31
  call void @llvm.lifetime.start.p0(i64 4, ptr nonnull %5) #7
  %13 = getelementptr inbounds nuw i8, ptr %1, i64 44
  %14 = load i32, ptr %13, align 4, !tbaa !30
  store i32 %14, ptr %5, align 4, !tbaa !31
  call void @llvm.lifetime.start.p0(i64 4, ptr nonnull %6) #7
  %15 = getelementptr inbounds nuw i8, ptr %1, i64 48
  %16 = load i32, ptr %15, align 8, !tbaa !32
  store i32 %16, ptr %6, align 4, !tbaa !31
  call void @llvm.lifetime.start.p0(i64 4, ptr nonnull %7) #7
  %17 = sub i32 %10, %14
  %18 = shl i32 %17, 3
  store i32 %18, ptr %7, align 4, !tbaa !31
  %19 = getelementptr inbounds nuw i8, ptr %2, i64 4
  %20 = load i32, ptr %19, align 4, !tbaa !41
  tail call void @__kmpc_push_num_threads(ptr nonnull @2, i32 %8, i32 %20)
  call void (ptr, i32, ptr, ...) @__kmpc_fork_call(ptr nonnull @2, i32 6, ptr nonnull @_ZN4ncnnL26pooling2x2s2_max_pack4_sseERKNS_3MatERS0_RKNS_6OptionE.omp_outlined, ptr nonnull %4, ptr nonnull %0, ptr nonnull %1, ptr nonnull %6, ptr nonnull %5, ptr nonnull %7)
  call void @llvm.lifetime.end.p0(i64 4, ptr nonnull %7) #7
  call void @llvm.lifetime.end.p0(i64 4, ptr nonnull %6) #7
  call void @llvm.lifetime.end.p0(i64 4, ptr nonnull %5) #7
  call void @llvm.lifetime.end.p0(i64 4, ptr nonnull %4) #7
  ret void
}